; Function Attrs: nounwind uwtable
define i32 @wc_RsaSSL_Verify(ptr noundef captures(address_is_null) %0, i32 noundef %1, ptr noundef %2, i32 noundef %3, ptr noundef %4) local_unnamed_addr #0 {
  %6 = icmp eq ptr %4, null
  br i1 %6, label %wc_RsaSSL_Verify_ex.exit, label %7

7:                                                ; preds = %5
  %8 = getelementptr inbounds nuw i8, ptr %4, i64 8352
  %9 = load ptr, ptr %8, align 8, !tbaa !14
  %10 = tail call fastcc i32 @RsaPrivateDecryptEx(ptr noundef %0, i32 noundef %1, ptr noundef %2, i32 noundef %3, ptr noundef null, ptr noundef nonnull %4, i32 noundef 1, i8 noundef zeroext 1, i32 noundef 0, i32 noundef 0, i32 noundef 0, ptr noundef null, i32 noundef 0, i32 noundef -1, ptr noundef %9)
  br label %wc_RsaSSL_Verify_ex.exit

wc_RsaSSL_Verify_ex.exit:                         ; preds = %5, %7
  %.0.i.i = phi i32 [ %10, %7 ], [ -173, %5 ]
  ret i32 %.0.i.i
}